target datalayout = "e-m:e-p270:32:32-p271:32:32-p272:64:64-i64:64-i128:128-f80:128-n8:16:32:64-S128"
target triple = "x86_64-pc-linux-gnu"

%"class.std::allocator" = type { i8 }
%"class.osgeo::proj::CPLJSonStreamingWriter" = type <{ %"class.std::__cxx11::basic_string", ptr, ptr, i8, [7 x i8], %"class.std::__cxx11::basic_string", %"class.std::__cxx11::basic_string", i32, i8, [3 x i8], %"class.std::vector", i8, [7 x i8] }>
%"class.std::__cxx11::basic_string" = type { %"struct.std::__cxx11::basic_string<char>::_Alloc_hider", i64, %union.anon }
%"struct.std::__cxx11::basic_string<char>::_Alloc_hider" = type { ptr }
%union.anon = type { i64, [8 x i8] }
%"class.std::vector" = type { %"struct.std::_Vector_base" }
%"struct.std::_Vector_base" = type { %"struct.std::_Vector_base<osgeo::proj::CPLJSonStreamingWriter::State, std::allocator<osgeo::proj::CPLJSonStreamingWriter::State>>::_Vector_impl" }
%"struct.std::_Vector_base<osgeo::proj::CPLJSonStreamingWriter::State, std::allocator<osgeo::proj::CPLJSonStreamingWriter::State>>::_Vector_impl" = type { %"struct.std::_Vector_base<osgeo::proj::CPLJSonStreamingWriter::State, std::allocator<osgeo::proj::CPLJSonStreamingWriter::State>>::_Vector_impl_data" }
%"struct.std::_Vector_base<osgeo::proj::CPLJSonStreamingWriter::State, std::allocator<osgeo::proj::CPLJSonStreamingWriter::State>>::_Vector_impl_data" = type { ptr, ptr, ptr }

@.str.22 = private unnamed_addr constant [6 x i8] c"\22NaN\22\00", align 1
@.str.23 = private unnamed_addr constant [11 x i8] c"\22Infinity\22\00", align 1
@.str.24 = private unnamed_addr constant [12 x i8] c"\22-Infinity\22\00", align 1
@.str.25 = private unnamed_addr constant [7 x i8] c"%%.%dg\00", align 1
@.str.26 = private unnamed_addr constant [3 x i8] c"%d\00", align 1

; Function Attrs: mustprogress nounwind uwtable
define linkonce_odr noundef i32 @_ZNSt14numeric_limitsIiE3maxEv() #4 comdat align 2 {
  ret i32 2147483647
}

; Function Attrs: mustprogress nounwind uwtable
define linkonce_odr noundef i32 @_ZNSt14numeric_limitsIiE3minEv() #4 comdat align 2 {
  ret i32 -2147483648
}

; Function Attrs: mustprogress nounwind uwtable
define linkonce_odr noundef zeroext i1 @_ZSt5isinfd(double noundef %0) #4 comdat {
  %2 = alloca double, align 8
  store double %0, ptr %2, align 8
  %3 = load double, ptr %2, align 8
  %4 = call i1 @llvm.is.fpclass.f64(double %3, i32 516)
  ret i1 %4
}

; Function Attrs: mustprogress uwtable
define hidden void @_ZN5osgeo4proj22CPLJSonStreamingWriter5PrintERKNSt7__cxx1112basic_stringIcSt11char_traitsIcESaIcEEE(ptr noundef nonnull align 8 dereferenceable(153) %0, ptr noundef nonnull align 8 dereferenceable(32) %1) #0 align 2 {
  %3 = alloca ptr, align 8
  %4 = alloca ptr, align 8
  store ptr %0, ptr %3, align 8
  store ptr %1, ptr %4, align 8
  %5 = load ptr, ptr %3, align 8
  %6 = getelementptr inbounds %"class.osgeo::proj::CPLJSonStreamingWriter", ptr %5, i32 0, i32 1
  %7 = load ptr, ptr %6, align 8
  %8 = icmp ne ptr %7, null
  br i1 %8, label %9, label %16

9:                                                ; preds = %2
  %10 = getelementptr inbounds %"class.osgeo::proj::CPLJSonStreamingWriter", ptr %5, i32 0, i32 1
  %11 = load ptr, ptr %10, align 8
  %12 = load ptr, ptr %4, align 8
  %13 = call noundef ptr @_ZNKSt7__cxx1112basic_stringIcSt11char_traitsIcESaIcEE5c_strEv(ptr noundef nonnull align 8 dereferenceable(32) %12) #13
  %14 = getelementptr inbounds %"class.osgeo::proj::CPLJSonStreamingWriter", ptr %5, i32 0, i32 2
  %15 = load ptr, ptr %14, align 8
  call void %11(ptr noundef %13, ptr noundef %15)
  br label %20

16:                                               ; preds = %2
  %17 = load ptr, ptr %4, align 8
  %18 = getelementptr inbounds %"class.osgeo::proj::CPLJSonStreamingWriter", ptr %5, i32 0, i32 0
  %19 = call noundef nonnull align 8 dereferenceable(32) ptr @_ZNSt7__cxx1112basic_stringIcSt11char_traitsIcESaIcEEpLERKS4_(ptr noundef nonnull align 8 dereferenceable(32) %18, ptr noundef nonnull align 8 dereferenceable(32) %17)
  br label %20

20:                                               ; preds = %16, %9
  ret void
}

; Function Attrs: mustprogress nounwind uwtable
define linkonce_odr noundef zeroext i1 @_ZSt5isnand(double noundef %0) #4 comdat {
  %2 = alloca double, align 8
  store double %0, ptr %2, align 8
  %3 = load double, ptr %2, align 8
  %4 = call i1 @llvm.is.fpclass.f64(double %3, i32 3)
  ret i1 %4
}

; Function Attrs: mustprogress uwtable
define hidden void @_ZN5osgeo4proj22CPLJSonStreamingWriter3AddEdi(ptr noundef nonnull align 8 dereferenceable(153) %0, double noundef %1, i32 noundef %2) #0 align 2 personality ptr @__gxx_personality_v0 {
  %4 = alloca ptr, align 8
  %5 = alloca double, align 8
  %6 = alloca i32, align 4
  %7 = alloca %"class.std::__cxx11::basic_string", align 8
  %8 = alloca %"class.std::allocator", align 1
  %9 = alloca ptr, align 8
  %10 = alloca i32, align 4
  %11 = alloca %"class.std::__cxx11::basic_string", align 8
  %12 = alloca %"class.std::allocator", align 1
  %13 = alloca %"class.std::__cxx11::basic_string", align 8
  %14 = alloca [10 x i8], align 1
  %15 = alloca %"class.std::__cxx11::basic_string", align 8
  store ptr %0, ptr %4, align 8
  store double %1, ptr %5, align 8
  store i32 %2, ptr %6, align 4
  %16 = load ptr, ptr %4, align 8
  call void @_ZN5osgeo4proj22CPLJSonStreamingWriter17EmitCommaIfNeededEv(ptr noundef nonnull align 8 dereferenceable(153) %16)
  %17 = load double, ptr %5, align 8
  %18 = call noundef zeroext i1 @_ZSt5isnand(double noundef %17)
  br i1 %18, label %19, label %31

19:                                               ; preds = %3
  call void @_ZNSaIcEC1Ev(ptr noundef nonnull align 1 dereferenceable(1) %8) #13
  invoke void @_ZNSt7__cxx1112basic_stringIcSt11char_traitsIcESaIcEEC1EPKcRKS3_(ptr noundef nonnull align 8 dereferenceable(32) %7, ptr noundef @.str.22, ptr noundef nonnull align 1 dereferenceable(1) %8)
          to label %20 unwind label %22

20:                                               ; preds = %19
  invoke void @_ZN5osgeo4proj22CPLJSonStreamingWriter5PrintERKNSt7__cxx1112basic_stringIcSt11char_traitsIcESaIcEEE(ptr noundef nonnull align 8 dereferenceable(153) %16, ptr noundef nonnull align 8 dereferenceable(32) %7)
          to label %21 unwind label %26

21:                                               ; preds = %20
  call void @_ZNSt7__cxx1112basic_stringIcSt11char_traitsIcESaIcEED1Ev(ptr noundef nonnull align 8 dereferenceable(32) %7) #13
  call void @_ZNSaIcED1Ev(ptr noundef nonnull align 1 dereferenceable(1) %8) #13
  br label %86

22:                                               ; preds = %19
  %23 = landingpad { ptr, i32 }
          cleanup
  %24 = extractvalue { ptr, i32 } %23, 0
  store ptr %24, ptr %9, align 8
  %25 = extractvalue { ptr, i32 } %23, 1
  store i32 %25, ptr %10, align 4
  br label %30

26:                                               ; preds = %20
  %27 = landingpad { ptr, i32 }
          cleanup
  %28 = extractvalue { ptr, i32 } %27, 0
  store ptr %28, ptr %9, align 8
  %29 = extractvalue { ptr, i32 } %27, 1
  store i32 %29, ptr %10, align 4
  call void @_ZNSt7__cxx1112basic_stringIcSt11char_traitsIcESaIcEED1Ev(ptr noundef nonnull align 8 dereferenceable(32) %7) #13
  br label %30

30:                                               ; preds = %26, %22
  call void @_ZNSaIcED1Ev(ptr noundef nonnull align 1 dereferenceable(1) %8) #13
  br label %87

31:                                               ; preds = %3
  %32 = load double, ptr %5, align 8
  %33 = call noundef zeroext i1 @_ZSt5isinfd(double noundef %32)
  br i1 %33, label %34, label %49

34:                                               ; preds = %31
  %35 = load double, ptr %5, align 8
  %36 = fcmp ogt double %35, 0.000000e+00
  %37 = select i1 %36, ptr @.str.23, ptr @.str.24
  call void @_ZNSaIcEC1Ev(ptr noundef nonnull align 1 dereferenceable(1) %12) #13
  invoke void @_ZNSt7__cxx1112basic_stringIcSt11char_traitsIcESaIcEEC1EPKcRKS3_(ptr noundef nonnull align 8 dereferenceable(32) %11, ptr noundef %37, ptr noundef nonnull align 1 dereferenceable(1) %12)
          to label %38 unwind label %40

38:                                               ; preds = %34
  invoke void @_ZN5osgeo4proj22CPLJSonStreamingWriter5PrintERKNSt7__cxx1112basic_stringIcSt11char_traitsIcESaIcEEE(ptr noundef nonnull align 8 dereferenceable(153) %16, ptr noundef nonnull align 8 dereferenceable(32) %11)
          to label %39 unwind label %44

39:                                               ; preds = %38
  call void @_ZNSt7__cxx1112basic_stringIcSt11char_traitsIcESaIcEED1Ev(ptr noundef nonnull align 8 dereferenceable(32) %11) #13
  call void @_ZNSaIcED1Ev(ptr noundef nonnull align 1 dereferenceable(1) %12) #13
  br label %85

40:                                               ; preds = %34
  %41 = landingpad { ptr, i32 }
          cleanup
  %42 = extractvalue { ptr, i32 } %41, 0
  store ptr %42, ptr %9, align 8
  %43 = extractvalue { ptr, i32 } %41, 1
  store i32 %43, ptr %10, align 4
  br label %48

44:                                               ; preds = %38
  %45 = landingpad { ptr, i32 }
          cleanup
  %46 = extractvalue { ptr, i32 } %45, 0
  store ptr %46, ptr %9, align 8
  %47 = extractvalue { ptr, i32 } %45, 1
  store i32 %47, ptr %10, align 4
  call void @_ZNSt7__cxx1112basic_stringIcSt11char_traitsIcESaIcEED1Ev(ptr noundef nonnull align 8 dereferenceable(32) %11) #13
  br label %48

48:                                               ; preds = %44, %40
  call void @_ZNSaIcED1Ev(ptr noundef nonnull align 1 dereferenceable(1) %12) #13
  br label %87

49:                                               ; preds = %31
  %50 = load double, ptr %5, align 8
  %51 = call noundef i32 @_ZNSt14numeric_limitsIiE3minEv() #13
  %52 = sitofp i32 %51 to double
  %53 = fcmp oge double %50, %52
  br i1 %53, label %54, label %73

54:                                               ; preds = %49
  %55 = load double, ptr %5, align 8
  %56 = call noundef i32 @_ZNSt14numeric_limitsIiE3maxEv() #13
  %57 = sitofp i32 %56 to double
  %58 = fcmp ole double %55, %57
  br i1 %58, label %59, label %73

59:                                               ; preds = %54
  %60 = load double, ptr %5, align 8
  %61 = fptosi double %60 to i32
  %62 = sitofp i32 %61 to double
  %63 = load double, ptr %5, align 8
  %64 = fcmp oeq double %62, %63
  br i1 %64, label %65, label %73

65:                                               ; preds = %59
  %66 = load double, ptr %5, align 8
  %67 = fptosi double %66 to i32
  call void (ptr, ptr, ...) @_ZL10CPLSPrintfB5cxx11PKcz(ptr dead_on_unwind writable sret(%"class.std::__cxx11::basic_string") align 8 %13, ptr noundef @.str.26, i32 noundef %67)
  invoke void @_ZN5osgeo4proj22CPLJSonStreamingWriter5PrintERKNSt7__cxx1112basic_stringIcSt11char_traitsIcESaIcEEE(ptr noundef nonnull align 8 dereferenceable(153) %16, ptr noundef nonnull align 8 dereferenceable(32) %13)
          to label %68 unwind label %69

68:                                               ; preds = %65
  call void @_ZNSt7__cxx1112basic_stringIcSt11char_traitsIcESaIcEED1Ev(ptr noundef nonnull align 8 dereferenceable(32) %13) #13
  br label %84

69:                                               ; preds = %65
  %70 = landingpad { ptr, i32 }
          cleanup
  %71 = extractvalue { ptr, i32 } %70, 0
  store ptr %71, ptr %9, align 8
  %72 = extractvalue { ptr, i32 } %70, 1
  store i32 %72, ptr %10, align 4
  call void @_ZNSt7__cxx1112basic_stringIcSt11char_traitsIcESaIcEED1Ev(ptr noundef nonnull align 8 dereferenceable(32) %13) #13
  br label %87

73:                                               ; preds = %59, %54, %49
  %74 = getelementptr inbounds [10 x i8], ptr %14, i64 0, i64 0
  %75 = load i32, ptr %6, align 4
  %76 = call i32 (ptr, i64, ptr, ...) @snprintf(ptr noundef %74, i64 noundef 10, ptr noundef @.str.25, i32 noundef %75) #13
  %77 = getelementptr inbounds [10 x i8], ptr %14, i64 0, i64 0
  %78 = load double, ptr %5, align 8
  call void (ptr, ptr, ...) @_ZL10CPLSPrintfB5cxx11PKcz(ptr dead_on_unwind writable sret(%"class.std::__cxx11::basic_string") align 8 %15, ptr noundef %77, double noundef %78)
  invoke void @_ZN5osgeo4proj22CPLJSonStreamingWriter5PrintERKNSt7__cxx1112basic_stringIcSt11char_traitsIcESaIcEEE(ptr noundef nonnull align 8 dereferenceable(153) %16, ptr noundef nonnull align 8 dereferenceable(32) %15)
          to label %79 unwind label %80

79:                                               ; preds = %73
  call void @_ZNSt7__cxx1112basic_stringIcSt11char_traitsIcESaIcEED1Ev(ptr noundef nonnull align 8 dereferenceable(32) %15) #13
  br label %84

80:                                               ; preds = %73
  %81 = landingpad { ptr, i32 }
          cleanup
  %82 = extractvalue { ptr, i32 } %81, 0
  store ptr %82, ptr %9, align 8
  %83 = extractvalue { ptr, i32 } %81, 1
  store i32 %83, ptr %10, align 4
  call void @_ZNSt7__cxx1112basic_stringIcSt11char_traitsIcESaIcEED1Ev(ptr noundef nonnull align 8 dereferenceable(32) %15) #13
  br label %87

84:                                               ; preds = %79, %68
  br label %85

85:                                               ; preds = %84, %39
  br label %86

86:                                               ; preds = %85, %21
  ret void

87:                                               ; preds = %80, %69, %48, %30
  %88 = load ptr, ptr %9, align 8
  %89 = load i32, ptr %10, align 4
  %90 = insertvalue { ptr, i32 } poison, ptr %88, 0
  %91 = insertvalue { ptr, i32 } %90, i32 %89, 1
  resume { ptr, i32 } %91
}