; Function Attrs: mustprogress uwtable
define hidden void @_ZN5osgeo4proj22CPLJSonStreamingWriter3AddEdi(ptr noundef nonnull align 8 dereferenceable(153) %0, double noundef %1, i32 noundef %2) local_unnamed_addr #0 align 2 personality ptr @__gxx_personality_v0 {
  %4 = alloca %"class.std::__cxx11::basic_string", align 8
  %5 = alloca %"class.std::allocator", align 1
  %6 = alloca %"class.std::__cxx11::basic_string", align 8
  %7 = alloca %"class.std::allocator", align 1
  %8 = alloca %"class.std::__cxx11::basic_string", align 8
  %9 = alloca [10 x i8], align 1
  %10 = alloca %"class.std::__cxx11::basic_string", align 8
  tail call void @_ZN5osgeo4proj22CPLJSonStreamingWriter17EmitCommaIfNeededEv(ptr noundef nonnull align 8 dereferenceable(153) %0)
  %11 = fcmp uno double %1, 0.000000e+00
  br i1 %11, label %12, label %27

12:                                               ; preds = %3
  call void @_ZNSaIcEC1Ev(ptr noundef nonnull align 1 dereferenceable(1) %5) #13
  invoke void @_ZNSt7__cxx1112basic_stringIcSt11char_traitsIcESaIcEEC1EPKcRKS3_(ptr noundef nonnull align 8 dereferenceable(32) %4, ptr noundef nonnull @.str.22, ptr noundef nonnull align 1 dereferenceable(1) %5)
          to label %13 unwind label %22

13:                                               ; preds = %12
  %14 = getelementptr inbounds i8, ptr %0, i64 32
  %15 = load ptr, ptr %14, align 8
  %.not.i = icmp eq ptr %15, null
  br i1 %.not.i, label %20, label %16

16:                                               ; preds = %13
  %17 = call noundef ptr @_ZNKSt7__cxx1112basic_stringIcSt11char_traitsIcESaIcEE5c_strEv(ptr noundef nonnull align 8 dereferenceable(32) %4) #13
  %18 = getelementptr inbounds i8, ptr %0, i64 40
  %19 = load ptr, ptr %18, align 8
  invoke void %15(ptr noundef %17, ptr noundef %19)
          to label %_ZN5osgeo4proj22CPLJSonStreamingWriter5PrintERKNSt7__cxx1112basic_stringIcSt11char_traitsIcESaIcEEE.exit unwind label %24

20:                                               ; preds = %13
  %21 = invoke noundef nonnull align 8 dereferenceable(32) ptr @_ZNSt7__cxx1112basic_stringIcSt11char_traitsIcESaIcEEpLERKS4_(ptr noundef nonnull align 8 dereferenceable(32) %0, ptr noundef nonnull align 8 dereferenceable(32) %4)
          to label %_ZN5osgeo4proj22CPLJSonStreamingWriter5PrintERKNSt7__cxx1112basic_stringIcSt11char_traitsIcESaIcEEE.exit unwind label %24

_ZN5osgeo4proj22CPLJSonStreamingWriter5PrintERKNSt7__cxx1112basic_stringIcSt11char_traitsIcESaIcEEE.exit: ; preds = %16, %20
  call void @_ZNSt7__cxx1112basic_stringIcSt11char_traitsIcESaIcEED1Ev(ptr noundef nonnull align 8 dereferenceable(32) %4) #13
  call void @_ZNSaIcED1Ev(ptr noundef nonnull align 1 dereferenceable(1) %5) #13
  br label %77

22:                                               ; preds = %12
  %23 = landingpad { ptr, i32 }
          cleanup
  br label %26

24:                                               ; preds = %20, %16
  %25 = landingpad { ptr, i32 }
          cleanup
  call void @_ZNSt7__cxx1112basic_stringIcSt11char_traitsIcESaIcEED1Ev(ptr noundef nonnull align 8 dereferenceable(32) %4) #13
  br label %26

26:                                               ; preds = %24, %22
  %.pn17 = phi { ptr, i32 } [ %25, %24 ], [ %23, %22 ]
  call void @_ZNSaIcED1Ev(ptr noundef nonnull align 1 dereferenceable(1) %5) #13
  br label %78

27:                                               ; preds = %3
  %28 = tail call double @llvm.fabs.f64(double %1)
  %29 = fcmp oeq double %28, 0x7FF0000000000000
  br i1 %29, label %30, label %47

30:                                               ; preds = %27
  %31 = fcmp ogt double %1, 0.000000e+00
  %32 = select i1 %31, ptr @.str.23, ptr @.str.24
  call void @_ZNSaIcEC1Ev(ptr noundef nonnull align 1 dereferenceable(1) %7) #13
  invoke void @_ZNSt7__cxx1112basic_stringIcSt11char_traitsIcESaIcEEC1EPKcRKS3_(ptr noundef nonnull align 8 dereferenceable(32) %6, ptr noundef nonnull %32, ptr noundef nonnull align 1 dereferenceable(1) %7)
          to label %33 unwind label %42

33:                                               ; preds = %30
  %34 = getelementptr inbounds i8, ptr %0, i64 32
  %35 = load ptr, ptr %34, align 8
  %.not.i21 = icmp eq ptr %35, null
  br i1 %.not.i21, label %40, label %36

36:                                               ; preds = %33
  %37 = call noundef ptr @_ZNKSt7__cxx1112basic_stringIcSt11char_traitsIcESaIcEE5c_strEv(ptr noundef nonnull align 8 dereferenceable(32) %6) #13
  %38 = getelementptr inbounds i8, ptr %0, i64 40
  %39 = load ptr, ptr %38, align 8
  invoke void %35(ptr noundef %37, ptr noundef %39)
          to label %_ZN5osgeo4proj22CPLJSonStreamingWriter5PrintERKNSt7__cxx1112basic_stringIcSt11char_traitsIcESaIcEEE.exit24 unwind label %44

40:                                               ; preds = %33
  %41 = invoke noundef nonnull align 8 dereferenceable(32) ptr @_ZNSt7__cxx1112basic_stringIcSt11char_traitsIcESaIcEEpLERKS4_(ptr noundef nonnull align 8 dereferenceable(32) %0, ptr noundef nonnull align 8 dereferenceable(32) %6)
          to label %_ZN5osgeo4proj22CPLJSonStreamingWriter5PrintERKNSt7__cxx1112basic_stringIcSt11char_traitsIcESaIcEEE.exit24 unwind label %44

_ZN5osgeo4proj22CPLJSonStreamingWriter5PrintERKNSt7__cxx1112basic_stringIcSt11char_traitsIcESaIcEEE.exit24: ; preds = %36, %40
  call void @_ZNSt7__cxx1112basic_stringIcSt11char_traitsIcESaIcEED1Ev(ptr noundef nonnull align 8 dereferenceable(32) %6) #13
  call void @_ZNSaIcED1Ev(ptr noundef nonnull align 1 dereferenceable(1) %7) #13
  br label %77

42:                                               ; preds = %30
  %43 = landingpad { ptr, i32 }
          cleanup
  br label %46

44:                                               ; preds = %40, %36
  %45 = landingpad { ptr, i32 }
          cleanup
  call void @_ZNSt7__cxx1112basic_stringIcSt11char_traitsIcESaIcEED1Ev(ptr noundef nonnull align 8 dereferenceable(32) %6) #13
  br label %46

46:                                               ; preds = %44, %42
  %.pn = phi { ptr, i32 } [ %45, %44 ], [ %43, %42 ]
  call void @_ZNSaIcED1Ev(ptr noundef nonnull align 1 dereferenceable(1) %7) #13
  br label %78

47:                                               ; preds = %27
  %48 = fcmp ult double %1, 0xC1E0000000000000
  %49 = fcmp ugt double %1, 0x41DFFFFFFFC00000
  %or.cond = or i1 %48, %49
  br i1 %or.cond, label %65, label %50

50:                                               ; preds = %47
  %51 = fptosi double %1 to i32
  %52 = sitofp i32 %51 to double
  %53 = fcmp oeq double %52, %1
  br i1 %53, label %54, label %65

54:                                               ; preds = %50
  call void (ptr, ptr, ...) @_ZL10CPLSPrintfB5cxx11PKcz(ptr dead_on_unwind nonnull writable sret(%"class.std::__cxx11::basic_string") align 8 %8, ptr noundef nonnull @.str.26, i32 noundef %51)
  %55 = getelementptr inbounds i8, ptr %0, i64 32
  %56 = load ptr, ptr %55, align 8
  %.not.i25 = icmp eq ptr %56, null
  br i1 %.not.i25, label %61, label %57

57:                                               ; preds = %54
  %58 = call noundef ptr @_ZNKSt7__cxx1112basic_stringIcSt11char_traitsIcESaIcEE5c_strEv(ptr noundef nonnull align 8 dereferenceable(32) %8) #13
  %59 = getelementptr inbounds i8, ptr %0, i64 40
  %60 = load ptr, ptr %59, align 8
  invoke void %56(ptr noundef %58, ptr noundef %60)
          to label %_ZN5osgeo4proj22CPLJSonStreamingWriter5PrintERKNSt7__cxx1112basic_stringIcSt11char_traitsIcESaIcEEE.exit28 unwind label %63

61:                                               ; preds = %54
  %62 = invoke noundef nonnull align 8 dereferenceable(32) ptr @_ZNSt7__cxx1112basic_stringIcSt11char_traitsIcESaIcEEpLERKS4_(ptr noundef nonnull align 8 dereferenceable(32) %0, ptr noundef nonnull align 8 dereferenceable(32) %8)
          to label %_ZN5osgeo4proj22CPLJSonStreamingWriter5PrintERKNSt7__cxx1112basic_stringIcSt11char_traitsIcESaIcEEE.exit28 unwind label %63

_ZN5osgeo4proj22CPLJSonStreamingWriter5PrintERKNSt7__cxx1112basic_stringIcSt11char_traitsIcESaIcEEE.exit28: ; preds = %57, %61
  call void @_ZNSt7__cxx1112basic_stringIcSt11char_traitsIcESaIcEED1Ev(ptr noundef nonnull align 8 dereferenceable(32) %8) #13
  br label %77

63:                                               ; preds = %61, %57
  %64 = landingpad { ptr, i32 }
          cleanup
  call void @_ZNSt7__cxx1112basic_stringIcSt11char_traitsIcESaIcEED1Ev(ptr noundef nonnull align 8 dereferenceable(32) %8) #13
  br label %78

65:                                               ; preds = %50, %47
  %66 = call i32 (ptr, i64, ptr, ...) @snprintf(ptr noundef nonnull dereferenceable(1) %9, i64 noundef 10, ptr noundef nonnull @.str.25, i32 noundef %2) #13
  call void (ptr, ptr, ...) @_ZL10CPLSPrintfB5cxx11PKcz(ptr dead_on_unwind nonnull writable sret(%"class.std::__cxx11::basic_string") align 8 %10, ptr noundef nonnull %9, double noundef %1)
  %67 = getelementptr inbounds i8, ptr %0, i64 32
  %68 = load ptr, ptr %67, align 8
  %.not.i29 = icmp eq ptr %68, null
  br i1 %.not.i29, label %73, label %69

69:                                               ; preds = %65
  %70 = call noundef ptr @_ZNKSt7__cxx1112basic_stringIcSt11char_traitsIcESaIcEE5c_strEv(ptr noundef nonnull align 8 dereferenceable(32) %10) #13
  %71 = getelementptr inbounds i8, ptr %0, i64 40
  %72 = load ptr, ptr %71, align 8
  invoke void %68(ptr noundef %70, ptr noundef %72)
          to label %_ZN5osgeo4proj22CPLJSonStreamingWriter5PrintERKNSt7__cxx1112basic_stringIcSt11char_traitsIcESaIcEEE.exit32 unwind label %75

73:                                               ; preds = %65
  %74 = invoke noundef nonnull align 8 dereferenceable(32) ptr @_ZNSt7__cxx1112basic_stringIcSt11char_traitsIcESaIcEEpLERKS4_(ptr noundef nonnull align 8 dereferenceable(32) %0, ptr noundef nonnull align 8 dereferenceable(32) %10)
          to label %_ZN5osgeo4proj22CPLJSonStreamingWriter5PrintERKNSt7__cxx1112basic_stringIcSt11char_traitsIcESaIcEEE.exit32 unwind label %75

_ZN5osgeo4proj22CPLJSonStreamingWriter5PrintERKNSt7__cxx1112basic_stringIcSt11char_traitsIcESaIcEEE.exit32: ; preds = %69, %73
  call void @_ZNSt7__cxx1112basic_stringIcSt11char_traitsIcESaIcEED1Ev(ptr noundef nonnull align 8 dereferenceable(32) %10) #13
  br label %77

75:                                               ; preds = %73, %69
  %76 = landingpad { ptr, i32 }
          cleanup
  call void @_ZNSt7__cxx1112basic_stringIcSt11char_traitsIcESaIcEED1Ev(ptr noundef nonnull align 8 dereferenceable(32) %10) #13
  br label %78

77:                                               ; preds = %_ZN5osgeo4proj22CPLJSonStreamingWriter5PrintERKNSt7__cxx1112basic_stringIcSt11char_traitsIcESaIcEEE.exit24, %_ZN5osgeo4proj22CPLJSonStreamingWriter5PrintERKNSt7__cxx1112basic_stringIcSt11char_traitsIcESaIcEEE.exit32, %_ZN5osgeo4proj22CPLJSonStreamingWriter5PrintERKNSt7__cxx1112basic_stringIcSt11char_traitsIcESaIcEEE.exit28, %_ZN5osgeo4proj22CPLJSonStreamingWriter5PrintERKNSt7__cxx1112basic_stringIcSt11char_traitsIcESaIcEEE.exit
  ret void

78:                                               ; preds = %75, %63, %46, %26
  %.pn17.pn = phi { ptr, i32 } [ %.pn17, %26 ], [ %.pn, %46 ], [ %64, %63 ], [ %76, %75 ]
  resume { ptr, i32 } %.pn17.pn
}